target datalayout = "e-m:e-p270:32:32-p271:32:32-p272:64:64-i64:64-i128:128-f80:128-n8:16:32:64-S128"
target triple = "x86_64-pc-linux-gnu"

; Function Attrs: mustprogress nounwind uwtable
define linkonce_odr hidden void @_ZN2cv12cpu_baseline16accProd_general_IffEEvPKT_S4_PT0_PKhiii(ptr noundef %0, ptr noundef %1, ptr noundef %2, ptr noundef %3, i32 noundef %4, i32 noundef %5, i32 noundef %6) #2 comdat {
  %8 = alloca ptr, align 8
  %9 = alloca ptr, align 8
  %10 = alloca ptr, align 8
  %11 = alloca ptr, align 8
  %12 = alloca i32, align 4
  %13 = alloca i32, align 4
  %14 = alloca i32, align 4
  %15 = alloca i32, align 4
  %16 = alloca i32, align 4
  store ptr %0, ptr %8, align 8, !tbaa !8
  store ptr %1, ptr %9, align 8, !tbaa !8
  store ptr %2, ptr %10, align 8, !tbaa !8
  store ptr %3, ptr %11, align 8, !tbaa !3
  store i32 %4, ptr %12, align 4, !tbaa !10
  store i32 %5, ptr %13, align 4, !tbaa !10
  store i32 %6, ptr %14, align 4, !tbaa !10
  call void @llvm.lifetime.start.p0(i64 4, ptr %15) #4
  %17 = load i32, ptr %14, align 4, !tbaa !10
  store i32 %17, ptr %15, align 4, !tbaa !10
  %18 = load ptr, ptr %11, align 8, !tbaa !3
  %19 = icmp ne ptr %18, null
  br i1 %19, label %49, label %20

20:                                               ; preds = %7
  %21 = load i32, ptr %13, align 4, !tbaa !10
  %22 = load i32, ptr %12, align 4, !tbaa !10
  %23 = mul nsw i32 %22, %21
  store i32 %23, ptr %12, align 4, !tbaa !10
  br label %24

24:                                               ; preds = %45, %20
  %25 = load i32, ptr %15, align 4, !tbaa !10
  %26 = load i32, ptr %12, align 4, !tbaa !10
  %27 = icmp slt i32 %25, %26
  br i1 %27, label %28, label %48

28:                                               ; preds = %24
  %29 = load ptr, ptr %8, align 8, !tbaa !8
  %30 = load i32, ptr %15, align 4, !tbaa !10
  %31 = sext i32 %30 to i64
  %32 = getelementptr inbounds float, ptr %29, i64 %31
  %33 = load float, ptr %32, align 4, !tbaa !13
  %34 = load ptr, ptr %9, align 8, !tbaa !8
  %35 = load i32, ptr %15, align 4, !tbaa !10
  %36 = sext i32 %35 to i64
  %37 = getelementptr inbounds float, ptr %34, i64 %36
  %38 = load float, ptr %37, align 4, !tbaa !13
  %39 = load ptr, ptr %10, align 8, !tbaa !8
  %40 = load i32, ptr %15, align 4, !tbaa !10
  %41 = sext i32 %40 to i64
  %42 = getelementptr inbounds float, ptr %39, i64 %41
  %43 = load float, ptr %42, align 4, !tbaa !13
  %44 = call float @llvm.fmuladd.f32(float %33, float %38, float %43)
  store float %44, ptr %42, align 4, !tbaa !13
  br label %45

45:                                               ; preds = %28
  %46 = load i32, ptr %15, align 4, !tbaa !10
  %47 = add nsw i32 %46, 1
  store i32 %47, ptr %15, align 4, !tbaa !10
  br label %24, !llvm.loop !72

48:                                               ; preds = %24
  br label %123

49:                                               ; preds = %7
  %50 = load i32, ptr %15, align 4, !tbaa !10
  %51 = load i32, ptr %13, align 4, !tbaa !10
  %52 = mul nsw i32 %50, %51
  %53 = load ptr, ptr %8, align 8, !tbaa !8
  %54 = sext i32 %52 to i64
  %55 = getelementptr inbounds float, ptr %53, i64 %54
  store ptr %55, ptr %8, align 8, !tbaa !8
  %56 = load i32, ptr %15, align 4, !tbaa !10
  %57 = load i32, ptr %13, align 4, !tbaa !10
  %58 = mul nsw i32 %56, %57
  %59 = load ptr, ptr %9, align 8, !tbaa !8
  %60 = sext i32 %58 to i64
  %61 = getelementptr inbounds float, ptr %59, i64 %60
  store ptr %61, ptr %9, align 8, !tbaa !8
  %62 = load i32, ptr %15, align 4, !tbaa !10
  %63 = load i32, ptr %13, align 4, !tbaa !10
  %64 = mul nsw i32 %62, %63
  %65 = load ptr, ptr %10, align 8, !tbaa !8
  %66 = sext i32 %64 to i64
  %67 = getelementptr inbounds float, ptr %65, i64 %66
  store ptr %67, ptr %10, align 8, !tbaa !8
  br label %68

68:                                               ; preds = %107, %49
  %69 = load i32, ptr %15, align 4, !tbaa !10
  %70 = load i32, ptr %12, align 4, !tbaa !10
  %71 = icmp slt i32 %69, %70
  br i1 %71, label %72, label %122

72:                                               ; preds = %68
  %73 = load ptr, ptr %11, align 8, !tbaa !3
  %74 = load i32, ptr %15, align 4, !tbaa !10
  %75 = sext i32 %74 to i64
  %76 = getelementptr inbounds i8, ptr %73, i64 %75
  %77 = load i8, ptr %76, align 1, !tbaa !12
  %78 = icmp ne i8 %77, 0
  br i1 %78, label %79, label %106

79:                                               ; preds = %72
  call void @llvm.lifetime.start.p0(i64 4, ptr %16) #4
  store i32 0, ptr %16, align 4, !tbaa !10
  br label %80

80:                                               ; preds = %102, %79
  %81 = load i32, ptr %16, align 4, !tbaa !10
  %82 = load i32, ptr %13, align 4, !tbaa !10
  %83 = icmp slt i32 %81, %82
  br i1 %83, label %85, label %84

84:                                               ; preds = %80
  call void @llvm.lifetime.end.p0(i64 4, ptr %16) #4
  br label %105

85:                                               ; preds = %80
  %86 = load ptr, ptr %8, align 8, !tbaa !8
  %87 = load i32, ptr %16, align 4, !tbaa !10
  %88 = sext i32 %87 to i64
  %89 = getelementptr inbounds float, ptr %86, i64 %88
  %90 = load float, ptr %89, align 4, !tbaa !13
  %91 = load ptr, ptr %9, align 8, !tbaa !8
  %92 = load i32, ptr %16, align 4, !tbaa !10
  %93 = sext i32 %92 to i64
  %94 = getelementptr inbounds float, ptr %91, i64 %93
  %95 = load float, ptr %94, align 4, !tbaa !13
  %96 = load ptr, ptr %10, align 8, !tbaa !8
  %97 = load i32, ptr %16, align 4, !tbaa !10
  %98 = sext i32 %97 to i64
  %99 = getelementptr inbounds float, ptr %96, i64 %98
  %100 = load float, ptr %99, align 4, !tbaa !13
  %101 = call float @llvm.fmuladd.f32(float %90, float %95, float %100)
  store float %101, ptr %99, align 4, !tbaa !13
  br label %102

102:                                              ; preds = %85
  %103 = load i32, ptr %16, align 4, !tbaa !10
  %104 = add nsw i32 %103, 1
  store i32 %104, ptr %16, align 4, !tbaa !10
  br label %80, !llvm.loop !73

105:                                              ; preds = %84
  br label %106

106:                                              ; preds = %105, %72
  br label %107

107:                                              ; preds = %106
  %108 = load i32, ptr %15, align 4, !tbaa !10
  %109 = add nsw i32 %108, 1
  store i32 %109, ptr %15, align 4, !tbaa !10
  %110 = load i32, ptr %13, align 4, !tbaa !10
  %111 = load ptr, ptr %8, align 8, !tbaa !8
  %112 = sext i32 %110 to i64
  %113 = getelementptr inbounds float, ptr %111, i64 %112
  store ptr %113, ptr %8, align 8, !tbaa !8
  %114 = load i32, ptr %13, align 4, !tbaa !10
  %115 = load ptr, ptr %9, align 8, !tbaa !8
  %116 = sext i32 %114 to i64
  %117 = getelementptr inbounds float, ptr %115, i64 %116
  store ptr %117, ptr %9, align 8, !tbaa !8
  %118 = load i32, ptr %13, align 4, !tbaa !10
  %119 = load ptr, ptr %10, align 8, !tbaa !8
  %120 = sext i32 %118 to i64
  %121 = getelementptr inbounds float, ptr %119, i64 %120
  store ptr %121, ptr %10, align 8, !tbaa !8
  br label %68, !llvm.loop !74

122:                                              ; preds = %68
  br label %123

123:                                              ; preds = %122, %48
  call void @llvm.lifetime.end.p0(i64 4, ptr %15) #4
  ret void
}

; Function Attrs: mustprogress uwtable
define hidden void @_ZN2cv12cpu_baseline13accProd_simd_EPKfS2_PfPKhii(ptr noundef %0, ptr noundef %1, ptr noundef %2, ptr noundef %3, i32 noundef %4, i32 noundef %5) #0 {
  %7 = alloca ptr, align 8
  %8 = alloca ptr, align 8
  %9 = alloca ptr, align 8
  %10 = alloca ptr, align 8
  %11 = alloca i32, align 4
  %12 = alloca i32, align 4
  %13 = alloca i32, align 4
  store ptr %0, ptr %7, align 8, !tbaa !8
  store ptr %1, ptr %8, align 8, !tbaa !8
  store ptr %2, ptr %9, align 8, !tbaa !8
  store ptr %3, ptr %10, align 8, !tbaa !3
  store i32 %4, ptr %11, align 4, !tbaa !10
  store i32 %5, ptr %12, align 4, !tbaa !10
  call void @llvm.lifetime.start.p0(i64 4, ptr %13) #4
  store i32 0, ptr %13, align 4, !tbaa !10
  %14 = load ptr, ptr %7, align 8, !tbaa !8
  %15 = load ptr, ptr %8, align 8, !tbaa !8
  %16 = load ptr, ptr %9, align 8, !tbaa !8
  %17 = load ptr, ptr %10, align 8, !tbaa !3
  %18 = load i32, ptr %11, align 4, !tbaa !10
  %19 = load i32, ptr %12, align 4, !tbaa !10
  %20 = load i32, ptr %13, align 4, !tbaa !10
  call void @_ZN2cv12cpu_baseline16accProd_general_IffEEvPKT_S4_PT0_PKhiii(ptr noundef %14, ptr noundef %15, ptr noundef %16, ptr noundef %17, i32 noundef %18, i32 noundef %19, i32 noundef %20)
  call void @llvm.lifetime.end.p0(i64 4, ptr %13) #4
  ret void
}

; Function Attrs: mustprogress uwtable
define hidden void @_ZN2cv11accProd_32fEPKfS1_PfPKhii(ptr noundef %0, ptr noundef %1, ptr noundef %2, ptr noundef %3, i32 noundef %4, i32 noundef %5) #0 {
  %7 = alloca ptr, align 8
  %8 = alloca ptr, align 8
  %9 = alloca ptr, align 8
  %10 = alloca ptr, align 8
  %11 = alloca i32, align 4
  %12 = alloca i32, align 4
  store ptr %0, ptr %7, align 8, !tbaa !8
  store ptr %1, ptr %8, align 8, !tbaa !8
  store ptr %2, ptr %9, align 8, !tbaa !8
  store ptr %3, ptr %10, align 8, !tbaa !3
  store i32 %4, ptr %11, align 4, !tbaa !10
  store i32 %5, ptr %12, align 4, !tbaa !10
  %13 = load ptr, ptr %7, align 8, !tbaa !8
  %14 = load ptr, ptr %8, align 8, !tbaa !8
  %15 = load ptr, ptr %9, align 8, !tbaa !8
  %16 = load ptr, ptr %10, align 8, !tbaa !3
  %17 = load i32, ptr %11, align 4, !tbaa !10
  %18 = load i32, ptr %12, align 4, !tbaa !10
  call void @_ZN2cv12cpu_baseline13accProd_simd_EPKfS2_PfPKhii(ptr noundef %13, ptr noundef %14, ptr noundef %15, ptr noundef %16, i32 noundef %17, i32 noundef %18)
  ret void
}